; Function Attrs: nounwind uwtable
define hidden i32 @SDL_GetCameraID_REAL(ptr noundef %0) local_unnamed_addr #1 {
  %.not = icmp eq ptr %0, null
  br i1 %.not, label %2, label %4

2:                                                ; preds = %1
  %3 = tail call zeroext i1 (ptr, ...) @SDL_SetError_REAL(ptr noundef nonnull @.str, ptr noundef nonnull @.str.5) #11
  br label %ReleaseCamera.exit

4:                                                ; preds = %1
  %5 = getelementptr inbounds nuw i8, ptr %0, i64 20
  %6 = tail call i32 @SDL_AddAtomicInt_REAL(ptr noundef nonnull %5, i32 noundef 1) #11
  %7 = load ptr, ptr %0, align 8
  tail call void @SDL_LockMutex_REAL(ptr noundef %7) #11
  %8 = getelementptr inbounds nuw i8, ptr %0, i64 108
  %9 = load i32, ptr %8, align 4
  %10 = load ptr, ptr %0, align 8
  tail call void @SDL_UnlockMutex_REAL(ptr noundef %10) #11
  %11 = tail call i32 @SDL_AddAtomicInt_REAL(ptr noundef nonnull %5, i32 noundef -1) #11
  %12 = icmp eq i32 %11, 1
  br i1 %12, label %13, label %ReleaseCamera.exit

13:                                               ; preds = %4
  %14 = load ptr, ptr getelementptr inbounds nuw (i8, ptr @camera_driver, i64 88), align 8
  tail call void @SDL_LockRWLockForWriting_REAL(ptr noundef %14) #11
  %15 = load ptr, ptr getelementptr inbounds nuw (i8, ptr @camera_driver, i64 96), align 8
  %16 = load i32, ptr %8, align 4
  %17 = zext i32 %16 to i64
  %18 = inttoptr i64 %17 to ptr
  %19 = tail call zeroext i1 @SDL_RemoveFromHashTable(ptr noundef %15, ptr noundef %18) #11
  br i1 %19, label %20, label %22

20:                                               ; preds = %13
  %21 = tail call i32 @SDL_AddAtomicInt_REAL(ptr noundef nonnull getelementptr inbounds nuw (i8, ptr @camera_driver, i64 128), i32 noundef -1) #11
  br label %22

22:                                               ; preds = %20, %13
  %23 = load ptr, ptr getelementptr inbounds nuw (i8, ptr @camera_driver, i64 88), align 8
  tail call void @SDL_UnlockRWLock_REAL(ptr noundef %23) #11
  br label %ReleaseCamera.exit

ReleaseCamera.exit:                               ; preds = %22, %4, %2
  %.0 = phi i32 [ 0, %2 ], [ %9, %4 ], [ %9, %22 ]
  ret i32 %.0
}